target datalayout = "e-m:e-p270:32:32-p271:32:32-p272:64:64-i64:64-i128:128-f80:128-n8:16:32:64-S128"
target triple = "x86_64-pc-linux-gnu"

%struct.Symbol = type { %union.anon, i64 }
%union.anon = type { i64 }
%struct.SymbolTable = type <{ [65536 x i16], [256 x i16], [512 x %struct.Symbol], [1024 x %struct.Symbol], i16, i16, i16, i8, i8, [9 x i16], [6 x i8] }>
%"class.std::shared_ptr" = type { %"class.std::__shared_ptr" }
%"class.std::__shared_ptr" = type { ptr, %"class.std::__shared_count" }
%"class.std::__shared_count" = type { ptr }
%struct.Encoder = type { %"class.std::shared_ptr", %union.anon.9 }
%union.anon.9 = type { [1572864 x i8] }

; Function Attrs: mustprogress nounwind uwtable
define linkonce_odr hidden noundef ptr @_ZNKSt12__shared_ptrI11SymbolTableLN9__gnu_cxx12_Lock_policyE2EE3getEv(ptr noundef nonnull align 8 dereferenceable(16) %0) #5 comdat align 2 {
  %2 = alloca ptr, align 8
  store ptr %0, ptr %2, align 8, !tbaa !296
  %3 = load ptr, ptr %2, align 8
  %4 = getelementptr inbounds nuw %"class.std::__shared_ptr", ptr %3, i32 0, i32 0
  %5 = load ptr, ptr %4, align 8, !tbaa !298
  ret ptr %5
}

; Function Attrs: mustprogress nounwind uwtable
define linkonce_odr hidden noundef ptr @_ZNKSt19__shared_ptr_accessI11SymbolTableLN9__gnu_cxx12_Lock_policyE2ELb0ELb0EE6_M_getEv(ptr noundef nonnull align 1 dereferenceable(1) %0) #5 comdat align 2 {
  %2 = alloca ptr, align 8
  store ptr %0, ptr %2, align 8, !tbaa !106
  %3 = load ptr, ptr %2, align 8
  %4 = call noundef ptr @_ZNKSt12__shared_ptrI11SymbolTableLN9__gnu_cxx12_Lock_policyE2EE3getEv(ptr noundef nonnull align 8 dereferenceable(16) %3) #3
  ret ptr %4
}

; Function Attrs: mustprogress nounwind uwtable
define linkonce_odr hidden noundef i32 @_ZNK6Symbol6lengthEv(ptr noundef nonnull align 8 dereferenceable(16) %0) #5 comdat align 2 {
  %2 = alloca ptr, align 8
  store ptr %0, ptr %2, align 8, !tbaa !8
  %3 = load ptr, ptr %2, align 8
  %4 = getelementptr inbounds nuw %struct.Symbol, ptr %3, i32 0, i32 1
  %5 = load i64, ptr %4, align 8, !tbaa !11
  %6 = lshr i64 %5, 28
  %7 = trunc i64 %6 to i32
  ret i32 %7
}

; Function Attrs: mustprogress nounwind uwtable
define linkonce_odr hidden noundef ptr @_ZNKSt19__shared_ptr_accessI11SymbolTableLN9__gnu_cxx12_Lock_policyE2ELb0ELb0EEptEv(ptr noundef nonnull align 1 dereferenceable(1) %0) #5 comdat align 2 {
  %2 = alloca ptr, align 8
  store ptr %0, ptr %2, align 8, !tbaa !106
  %3 = load ptr, ptr %2, align 8
  %4 = call noundef ptr @_ZNKSt19__shared_ptr_accessI11SymbolTableLN9__gnu_cxx12_Lock_policyE2ELb0ELb0EE6_M_getEv(ptr noundef nonnull align 1 dereferenceable(1) %3) #3
  ret ptr %4
}

; Function Attrs: mustprogress uwtable
define hidden i32 @duckdb_fsst_export(ptr noundef %0, ptr noundef %1) #4 {
  %3 = alloca ptr, align 8
  %4 = alloca ptr, align 8
  %5 = alloca ptr, align 8
  %6 = alloca i64, align 8
  %7 = alloca i32, align 4
  %8 = alloca i32, align 4
  %9 = alloca i32, align 4
  %10 = alloca i32, align 4
  %11 = alloca i32, align 4
  store ptr %0, ptr %3, align 8, !tbaa !45
  store ptr %1, ptr %4, align 8, !tbaa !38
  call void @llvm.lifetime.start.p0(i64 8, ptr %5) #3
  %12 = load ptr, ptr %3, align 8, !tbaa !45
  store ptr %12, ptr %5, align 8, !tbaa !99
  call void @llvm.lifetime.start.p0(i64 8, ptr %6) #3
  %13 = load ptr, ptr %5, align 8, !tbaa !99
  %14 = getelementptr inbounds nuw %struct.Encoder, ptr %13, i32 0, i32 0
  %15 = call noundef ptr @_ZNKSt19__shared_ptr_accessI11SymbolTableLN9__gnu_cxx12_Lock_policyE2ELb0ELb0EEptEv(ptr noundef nonnull align 1 dereferenceable(1) %14) #3
  %16 = getelementptr inbounds nuw %struct.SymbolTable, ptr %15, i32 0, i32 5
  %17 = load i16, ptr %16, align 2, !tbaa !49
  %18 = zext i16 %17 to i64
  %19 = shl i64 %18, 24
  %20 = or i64 86716326009110528, %19
  %21 = load ptr, ptr %5, align 8, !tbaa !99
  %22 = getelementptr inbounds nuw %struct.Encoder, ptr %21, i32 0, i32 0
  %23 = call noundef ptr @_ZNKSt19__shared_ptr_accessI11SymbolTableLN9__gnu_cxx12_Lock_policyE2ELb0ELb0EEptEv(ptr noundef nonnull align 1 dereferenceable(1) %22) #3
  %24 = getelementptr inbounds nuw %struct.SymbolTable, ptr %23, i32 0, i32 6
  %25 = load i16, ptr %24, align 4, !tbaa !37
  %26 = zext i16 %25 to i64
  %27 = shl i64 %26, 16
  %28 = or i64 %20, %27
  %29 = load ptr, ptr %5, align 8, !tbaa !99
  %30 = getelementptr inbounds nuw %struct.Encoder, ptr %29, i32 0, i32 0
  %31 = call noundef ptr @_ZNKSt19__shared_ptr_accessI11SymbolTableLN9__gnu_cxx12_Lock_policyE2ELb0ELb0EEptEv(ptr noundef nonnull align 1 dereferenceable(1) %30) #3
  %32 = getelementptr inbounds nuw %struct.SymbolTable, ptr %31, i32 0, i32 4
  %33 = load i16, ptr %32, align 8, !tbaa !48
  %34 = zext i16 %33 to i64
  %35 = shl i64 %34, 8
  %36 = or i64 %28, %35
  %37 = or i64 %36, 1
  store i64 %37, ptr %6, align 8, !tbaa !32
  %38 = load ptr, ptr %4, align 8, !tbaa !38
  call void @llvm.memcpy.p0.p0.i64(ptr align 1 %38, ptr align 8 %6, i64 8, i1 false)
  %39 = load ptr, ptr %5, align 8, !tbaa !99
  %40 = getelementptr inbounds nuw %struct.Encoder, ptr %39, i32 0, i32 0
  %41 = call noundef ptr @_ZNKSt19__shared_ptr_accessI11SymbolTableLN9__gnu_cxx12_Lock_policyE2ELb0ELb0EEptEv(ptr noundef nonnull align 1 dereferenceable(1) %40) #3
  %42 = getelementptr inbounds nuw %struct.SymbolTable, ptr %41, i32 0, i32 7
  %43 = load i8, ptr %42, align 2, !tbaa !35, !range !33, !noundef !34
  %44 = trunc i8 %43 to i1
  %45 = zext i1 %44 to i8
  %46 = load ptr, ptr %4, align 8, !tbaa !38
  %47 = getelementptr inbounds i8, ptr %46, i64 8
  store i8 %45, ptr %47, align 1, !tbaa !7
  call void @llvm.lifetime.start.p0(i64 4, ptr %7) #3
  store i32 0, ptr %7, align 4, !tbaa !3
  br label %48

48:                                               ; preds = %67, %2
  %49 = load i32, ptr %7, align 4, !tbaa !3
  %50 = icmp ult i32 %49, 8
  br i1 %50, label %52, label %51

51:                                               ; preds = %48
  call void @llvm.lifetime.end.p0(i64 4, ptr %7) #3
  br label %70

52:                                               ; preds = %48
  %53 = load ptr, ptr %5, align 8, !tbaa !99
  %54 = getelementptr inbounds nuw %struct.Encoder, ptr %53, i32 0, i32 0
  %55 = call noundef ptr @_ZNKSt19__shared_ptr_accessI11SymbolTableLN9__gnu_cxx12_Lock_policyE2ELb0ELb0EEptEv(ptr noundef nonnull align 1 dereferenceable(1) %54) #3
  %56 = getelementptr inbounds nuw %struct.SymbolTable, ptr %55, i32 0, i32 9
  %57 = load i32, ptr %7, align 4, !tbaa !3
  %58 = zext i32 %57 to i64
  %59 = getelementptr inbounds nuw [9 x i16], ptr %56, i64 0, i64 %58
  %60 = load i16, ptr %59, align 2, !tbaa !14
  %61 = trunc i16 %60 to i8
  %62 = load ptr, ptr %4, align 8, !tbaa !38
  %63 = load i32, ptr %7, align 4, !tbaa !3
  %64 = add i32 9, %63
  %65 = zext i32 %64 to i64
  %66 = getelementptr inbounds nuw i8, ptr %62, i64 %65
  store i8 %61, ptr %66, align 1, !tbaa !7
  br label %67

67:                                               ; preds = %52
  %68 = load i32, ptr %7, align 4, !tbaa !3
  %69 = add i32 %68, 1
  store i32 %69, ptr %7, align 4, !tbaa !3
  br label %48, !llvm.loop !103

70:                                               ; preds = %51
  call void @llvm.lifetime.start.p0(i64 4, ptr %8) #3
  store i32 17, ptr %8, align 4, !tbaa !3
  call void @llvm.lifetime.start.p0(i64 4, ptr %9) #3
  %71 = load ptr, ptr %5, align 8, !tbaa !99
  %72 = getelementptr inbounds nuw %struct.Encoder, ptr %71, i32 0, i32 0
  %73 = call noundef ptr @_ZNKSt19__shared_ptr_accessI11SymbolTableLN9__gnu_cxx12_Lock_policyE2ELb0ELb0EEptEv(ptr noundef nonnull align 1 dereferenceable(1) %72) #3
  %74 = getelementptr inbounds nuw %struct.SymbolTable, ptr %73, i32 0, i32 7
  %75 = load i8, ptr %74, align 2, !tbaa !35, !range !33, !noundef !34
  %76 = trunc i8 %75 to i1
  %77 = zext i1 %76 to i32
  store i32 %77, ptr %9, align 4, !tbaa !3
  br label %78

78:                                               ; preds = %123, %70
  %79 = load i32, ptr %9, align 4, !tbaa !3
  %80 = load ptr, ptr %5, align 8, !tbaa !99
  %81 = getelementptr inbounds nuw %struct.Encoder, ptr %80, i32 0, i32 0
  %82 = call noundef ptr @_ZNKSt19__shared_ptr_accessI11SymbolTableLN9__gnu_cxx12_Lock_policyE2ELb0ELb0EEptEv(ptr noundef nonnull align 1 dereferenceable(1) %81) #3
  %83 = getelementptr inbounds nuw %struct.SymbolTable, ptr %82, i32 0, i32 4
  %84 = load i16, ptr %83, align 8, !tbaa !48
  %85 = zext i16 %84 to i32
  %86 = icmp ult i32 %79, %85
  br i1 %86, label %88, label %87

87:                                               ; preds = %78
  store i32 5, ptr %10, align 4
  call void @llvm.lifetime.end.p0(i64 4, ptr %9) #3
  br label %126

88:                                               ; preds = %78
  call void @llvm.lifetime.start.p0(i64 4, ptr %11) #3
  store i32 0, ptr %11, align 4, !tbaa !3
  br label %89

89:                                               ; preds = %119, %88
  %90 = load i32, ptr %11, align 4, !tbaa !3
  %91 = load ptr, ptr %5, align 8, !tbaa !99
  %92 = getelementptr inbounds nuw %struct.Encoder, ptr %91, i32 0, i32 0
  %93 = call noundef ptr @_ZNKSt19__shared_ptr_accessI11SymbolTableLN9__gnu_cxx12_Lock_policyE2ELb0ELb0EEptEv(ptr noundef nonnull align 1 dereferenceable(1) %92) #3
  %94 = getelementptr inbounds nuw %struct.SymbolTable, ptr %93, i32 0, i32 2
  %95 = load i32, ptr %9, align 4, !tbaa !3
  %96 = zext i32 %95 to i64
  %97 = getelementptr inbounds nuw [512 x %struct.Symbol], ptr %94, i64 0, i64 %96
  %98 = call noundef i32 @_ZNK6Symbol6lengthEv(ptr noundef nonnull align 8 dereferenceable(16) %97)
  %99 = icmp ult i32 %90, %98
  br i1 %99, label %101, label %100

100:                                              ; preds = %89
  store i32 8, ptr %10, align 4
  call void @llvm.lifetime.end.p0(i64 4, ptr %11) #3
  br label %122

101:                                              ; preds = %89
  %102 = load ptr, ptr %5, align 8, !tbaa !99
  %103 = getelementptr inbounds nuw %struct.Encoder, ptr %102, i32 0, i32 0
  %104 = call noundef ptr @_ZNKSt19__shared_ptr_accessI11SymbolTableLN9__gnu_cxx12_Lock_policyE2ELb0ELb0EEptEv(ptr noundef nonnull align 1 dereferenceable(1) %103) #3
  %105 = getelementptr inbounds nuw %struct.SymbolTable, ptr %104, i32 0, i32 2
  %106 = load i32, ptr %9, align 4, !tbaa !3
  %107 = zext i32 %106 to i64
  %108 = getelementptr inbounds nuw [512 x %struct.Symbol], ptr %105, i64 0, i64 %107
  %109 = getelementptr inbounds nuw %struct.Symbol, ptr %108, i32 0, i32 0
  %110 = load i32, ptr %11, align 4, !tbaa !3
  %111 = zext i32 %110 to i64
  %112 = getelementptr inbounds nuw [8 x i8], ptr %109, i64 0, i64 %111
  %113 = load i8, ptr %112, align 1, !tbaa !7
  %114 = load ptr, ptr %4, align 8, !tbaa !38
  %115 = load i32, ptr %8, align 4, !tbaa !3
  %116 = add i32 %115, 1
  store i32 %116, ptr %8, align 4, !tbaa !3
  %117 = zext i32 %115 to i64
  %118 = getelementptr inbounds nuw i8, ptr %114, i64 %117
  store i8 %113, ptr %118, align 1, !tbaa !7
  br label %119

119:                                              ; preds = %101
  %120 = load i32, ptr %11, align 4, !tbaa !3
  %121 = add i32 %120, 1
  store i32 %121, ptr %11, align 4, !tbaa !3
  br label %89, !llvm.loop !104

122:                                              ; preds = %100
  br label %123

123:                                              ; preds = %122
  %124 = load i32, ptr %9, align 4, !tbaa !3
  %125 = add i32 %124, 1
  store i32 %125, ptr %9, align 4, !tbaa !3
  br label %78, !llvm.loop !105

126:                                              ; preds = %87
  %127 = load i32, ptr %8, align 4, !tbaa !3
  store i32 1, ptr %10, align 4
  call void @llvm.lifetime.end.p0(i64 4, ptr %8) #3
  call void @llvm.lifetime.end.p0(i64 8, ptr %6) #3
  call void @llvm.lifetime.end.p0(i64 8, ptr %5) #3
  ret i32 %127
}