; Function Attrs: mustprogress nofree norecurse nosync nounwind memory(read, argmem: readwrite, inaccessiblemem: none) uwtable
define hidden i32 @duckdb_fsst_export(ptr noundef readonly captures(none) %0, ptr noundef writeonly captures(none) initializes((0, 9)) %1) local_unnamed_addr #12 {
  %3 = load ptr, ptr %0, align 8, !tbaa !110
  %4 = getelementptr inbounds nuw i8, ptr %3, i64 156162
  %5 = load i16, ptr %4, align 2, !tbaa !24
  %6 = zext i16 %5 to i64
  %7 = shl nuw nsw i64 %6, 24
  %8 = getelementptr inbounds nuw i8, ptr %3, i64 156164
  %9 = load i16, ptr %8, align 4, !tbaa !28
  %10 = zext i16 %9 to i64
  %11 = shl nuw nsw i64 %10, 16
  %12 = getelementptr inbounds nuw i8, ptr %3, i64 156160
  %13 = load i16, ptr %12, align 8, !tbaa !60
  %14 = zext i16 %13 to i64
  %15 = shl nuw nsw i64 %14, 8
  %16 = or i64 %7, %11
  %17 = or i64 %16, %15
  %18 = or i64 %17, 86716326009110529
  store i64 %18, ptr %1, align 1
  %19 = load ptr, ptr %0, align 8, !tbaa !110
  %20 = getelementptr inbounds nuw i8, ptr %19, i64 156166
  %21 = load i8, ptr %20, align 2, !tbaa !29, !range !112, !noundef !113
  %22 = getelementptr inbounds nuw i8, ptr %1, i64 8
  store i8 %21, ptr %22, align 1, !tbaa !8
  %invariant.gep = getelementptr inbounds nuw i8, ptr %1, i64 9
  br label %32

23:                                               ; preds = %32
  %24 = load ptr, ptr %0, align 8, !tbaa !110
  %25 = getelementptr inbounds nuw i8, ptr %24, i64 156166
  %26 = load i8, ptr %25, align 2, !tbaa !29, !range !112, !noundef !113
  %27 = getelementptr inbounds nuw i8, ptr %24, i64 156160
  %28 = load i16, ptr %27, align 8, !tbaa !60
  %29 = zext nneg i8 %26 to i16
  %30 = icmp ugt i16 %28, %29
  br i1 %30, label %.preheader.preheader, label %._crit_edge34

.preheader.preheader:                             ; preds = %23
  %31 = zext nneg i8 %26 to i64
  br label %.preheader

32:                                               ; preds = %2, %32
  %indvars.iv = phi i64 [ 0, %2 ], [ %indvars.iv.next, %32 ]
  %33 = load ptr, ptr %0, align 8, !tbaa !110
  %34 = getelementptr inbounds nuw i8, ptr %33, i64 156168
  %35 = getelementptr inbounds nuw [9 x i16], ptr %34, i64 0, i64 %indvars.iv
  %36 = load i16, ptr %35, align 2, !tbaa !34
  %37 = trunc i16 %36 to i8
  %gep = getelementptr inbounds nuw i8, ptr %invariant.gep, i64 %indvars.iv
  store i8 %37, ptr %gep, align 1, !tbaa !8
  %indvars.iv.next = add nuw nsw i64 %indvars.iv, 1
  %exitcond.not = icmp eq i64 %indvars.iv.next, 8
  br i1 %exitcond.not, label %23, label %32, !llvm.loop !114

.preheader:                                       ; preds = %.preheader.preheader, %._crit_edge
  %38 = phi ptr [ %24, %.preheader.preheader ], [ %43, %._crit_edge ]
  %indvars.iv42 = phi i64 [ %31, %.preheader.preheader ], [ %indvars.iv.next43, %._crit_edge ]
  %.02732 = phi i32 [ 17, %.preheader.preheader ], [ %.1.lcssa, %._crit_edge ]
  %39 = getelementptr inbounds nuw i8, ptr %38, i64 131584
  %.idx = shl nuw nsw i64 %indvars.iv42, 4
  %.offs = or disjoint i64 %.idx, 8
  %40 = getelementptr inbounds nuw i8, ptr %39, i64 %.offs
  %41 = load i64, ptr %40, align 8, !tbaa !3
  %42 = and i64 %41, 1152921504338411520
  %.not = icmp eq i64 %42, 0
  br i1 %.not, label %._crit_edge, label %.lr.ph

._crit_edge34:                                    ; preds = %._crit_edge, %23
  %.027.lcssa = phi i32 [ 17, %23 ], [ %.1.lcssa, %._crit_edge ]
  ret i32 %.027.lcssa

._crit_edge:                                      ; preds = %.lr.ph, %.preheader
  %43 = phi ptr [ %38, %.preheader ], [ %56, %.lr.ph ]
  %.1.lcssa = phi i32 [ %.02732, %.preheader ], [ %53, %.lr.ph ]
  %indvars.iv.next43 = add nuw nsw i64 %indvars.iv42, 1
  %44 = getelementptr inbounds nuw i8, ptr %43, i64 156160
  %45 = load i16, ptr %44, align 8, !tbaa !60
  %46 = zext i16 %45 to i64
  %47 = icmp samesign ult i64 %indvars.iv.next43, %46
  br i1 %47, label %.preheader, label %._crit_edge34, !llvm.loop !115

.lr.ph:                                           ; preds = %.preheader, %.lr.ph
  %indvars.iv39 = phi i64 [ %indvars.iv.next40, %.lr.ph ], [ 0, %.preheader ]
  %48 = phi ptr [ %56, %.lr.ph ], [ %38, %.preheader ]
  %.130 = phi i32 [ %53, %.lr.ph ], [ %.02732, %.preheader ]
  %49 = getelementptr inbounds nuw i8, ptr %48, i64 131584
  %50 = getelementptr inbounds nuw [512 x %struct.Symbol], ptr %49, i64 0, i64 %indvars.iv42
  %51 = getelementptr inbounds nuw [8 x i8], ptr %50, i64 0, i64 %indvars.iv39
  %52 = load i8, ptr %51, align 1, !tbaa !8
  %53 = add i32 %.130, 1
  %54 = zext i32 %.130 to i64
  %55 = getelementptr inbounds nuw i8, ptr %1, i64 %54
  store i8 %52, ptr %55, align 1, !tbaa !8
  %indvars.iv.next40 = add nuw nsw i64 %indvars.iv39, 1
  %56 = load ptr, ptr %0, align 8, !tbaa !110
  %57 = getelementptr inbounds nuw i8, ptr %56, i64 131584
  %58 = getelementptr inbounds nuw i8, ptr %57, i64 %.offs
  %59 = load i64, ptr %58, align 8, !tbaa !3
  %60 = lshr i64 %59, 28
  %61 = and i64 %60, 4294967295
  %62 = icmp samesign ult i64 %indvars.iv.next40, %61
  br i1 %62, label %.lr.ph, label %._crit_edge, !llvm.loop !116
}